; Function Attrs: mustprogress nofree norecurse nosync nounwind willreturn memory(read, inaccessiblemem: none) uwtable
define noundef zeroext i1 @_ZN4base13IsStringASCIIERKNSt7__cxx1112basic_stringIwSt11char_traitsIwESaIwEEE(ptr noundef nonnull readonly align 8 captures(none) dereferenceable(32) %0) local_unnamed_addr #7 personality ptr @__gxx_personality_v0 {
  %2 = load ptr, ptr %0, align 8, !tbaa !86
  %3 = getelementptr inbounds nuw i8, ptr %0, i64 8
  %4 = load i64, ptr %3, align 8, !tbaa !90
  %5 = getelementptr inbounds nuw i32, ptr %2, i64 %4
  %6 = ptrtoint ptr %2 to i64
  %7 = and i64 %6, 7
  %.not.i25.i = icmp eq i64 %7, 0
  %8 = icmp eq i64 %4, 0
  %.not2326.i = or i1 %8, %.not.i25.i
  br i1 %.not2326.i, label %._crit_edge.i, label %.lr.ph.i

.lr.ph.i:                                         ; preds = %1, %.lr.ph.i
  %.028.i = phi ptr [ %12, %.lr.ph.i ], [ %2, %1 ]
  %.02027.i = phi i64 [ %11, %.lr.ph.i ], [ 0, %1 ]
  %9 = load i32, ptr %.028.i, align 4, !tbaa !3
  %10 = sext i32 %9 to i64
  %11 = or i64 %.02027.i, %10
  %12 = getelementptr inbounds nuw i8, ptr %.028.i, i64 4
  %13 = ptrtoint ptr %12 to i64
  %14 = and i64 %13, 7
  %.not.i.i = icmp eq i64 %14, 0
  %15 = icmp eq ptr %12, %5
  %.not23.i = select i1 %.not.i.i, i1 true, i1 %15
  br i1 %.not23.i, label %._crit_edge.i, label %.lr.ph.i, !llvm.loop !91

._crit_edge.i:                                    ; preds = %.lr.ph.i, %1
  %.020.lcssa.i = phi i64 [ 0, %1 ], [ %11, %.lr.ph.i ]
  %.0.lcssa.i = phi ptr [ %2, %1 ], [ %12, %.lr.ph.i ]
  %16 = ptrtoint ptr %5 to i64
  %17 = and i64 %16, -8
  %18 = inttoptr i64 %17 to ptr
  %19 = icmp ult ptr %.0.lcssa.i, %18
  br i1 %19, label %.lr.ph33.i, label %.preheader.i

.preheader.i:                                     ; preds = %.lr.ph33.i, %._crit_edge.i
  %.121.lcssa.i = phi i64 [ %.020.lcssa.i, %._crit_edge.i ], [ %21, %.lr.ph33.i ]
  %.1.lcssa.i = phi ptr [ %.0.lcssa.i, %._crit_edge.i ], [ %22, %.lr.ph33.i ]
  %.not36.i = icmp eq ptr %.1.lcssa.i, %5
  br i1 %.not36.i, label %_ZN4base15DoIsStringASCIIIwEEbPKT_m.exit, label %.lr.ph39.i

.lr.ph33.i:                                       ; preds = %._crit_edge.i, %.lr.ph33.i
  %.131.i = phi ptr [ %22, %.lr.ph33.i ], [ %.0.lcssa.i, %._crit_edge.i ]
  %.12130.i = phi i64 [ %21, %.lr.ph33.i ], [ %.020.lcssa.i, %._crit_edge.i ]
  %20 = load i64, ptr %.131.i, align 8, !tbaa !52
  %21 = or i64 %20, %.12130.i
  %22 = getelementptr inbounds nuw i8, ptr %.131.i, i64 8
  %23 = icmp ult ptr %22, %18
  br i1 %23, label %.lr.ph33.i, label %.preheader.i, !llvm.loop !92

.lr.ph39.i:                                       ; preds = %.preheader.i, %.lr.ph39.i
  %.238.i = phi ptr [ %27, %.lr.ph39.i ], [ %.1.lcssa.i, %.preheader.i ]
  %.22237.i = phi i64 [ %26, %.lr.ph39.i ], [ %.121.lcssa.i, %.preheader.i ]
  %24 = load i32, ptr %.238.i, align 4, !tbaa !3
  %25 = sext i32 %24 to i64
  %26 = or i64 %.22237.i, %25
  %27 = getelementptr inbounds nuw i8, ptr %.238.i, i64 4
  %.not.i = icmp eq ptr %27, %5
  br i1 %.not.i, label %_ZN4base15DoIsStringASCIIIwEEbPKT_m.exit, label %.lr.ph39.i, !llvm.loop !93

_ZN4base15DoIsStringASCIIIwEEbPKT_m.exit:         ; preds = %.lr.ph39.i, %.preheader.i
  %.222.lcssa.i = phi i64 [ %.121.lcssa.i, %.preheader.i ], [ %26, %.lr.ph39.i ]
  %28 = and i64 %.222.lcssa.i, -545460846720
  %.not24.i = icmp eq i64 %28, 0
  ret i1 %.not24.i
}